libTECkit.so.0 libteckit0 #MINVER#
* Build-Depends-Package: libteckit-dev
 TECkit_ConvertBuffer@Base 2.5.8
 TECkit_ConvertBufferOpt@Base 2.5.8
 TECkit_CreateConverter@Base 2.5.8
 TECkit_DisposeConverter@Base 2.5.8
 TECkit_Flush@Base 2.5.8
 TECkit_FlushOpt@Base 2.5.8
 TECkit_GetConverterFlags@Base 2.5.8
 TECkit_GetConverterName@Base 2.5.8
 TECkit_GetMappingFlags@Base 2.5.8
 TECkit_GetMappingName@Base 2.5.8
 TECkit_GetVersion@Base 2.5.8
 TECkit_ResetConverter@Base 2.5.8
 _ZN10Normalizer10appendCharEj@Base 2.5.8
 _ZN10Normalizer10growOutBufEv@Base 2.5.8
 _ZN10Normalizer10insertCharEji@Base 2.5.8
 _ZN10Normalizer12decomposeOneERj@Base 2.5.8
 _ZN10Normalizer12generateCharEj@Base 2.5.8
 _ZN10Normalizer5ResetEv@Base 2.5.8
 _ZN10Normalizer7composeEv@Base 2.5.8
 _ZN10Normalizer7getCharEv@Base 2.5.8
 _ZN10Normalizer7processEv@Base 2.5.8
 _ZN10Normalizer9decomposeEj@Base 2.5.8
 _ZN10NormalizerC1Eb@Base 2.5.8
 _ZN10NormalizerC2Eb@Base 2.5.8
 _ZN10NormalizerD0Ev@Base 2.5.8
 _ZN10NormalizerD1Ev@Base 2.5.8
 _ZN10NormalizerD2Ev@Base 2.5.8
 _ZN4Pass10outputCharEj@Base 2.5.8
 _ZN4Pass12advanceInputEj@Base 2.5.8
 _ZN4Pass5ResetEv@Base 2.5.8
 _ZN4Pass5matchEiii@Base 2.5.8
 _ZN4Pass7getCharEv@Base 2.5.8
 _ZN4Pass9DoMappingEv@Base 2.5.8
 _ZN4Pass9inputCharEl@Base 2.5.8
 _ZN4PassC1EPK11TableHeaderP9Converter@Base 2.5.8
 _ZN4PassC2EPK11TableHeaderP9Converter@Base 2.5.8
 _ZN4PassD0Ev@Base 2.5.8
 _ZN4PassD1Ev@Base 2.5.8
 _ZN4PassD2Ev@Base 2.5.8
 _ZN5StageC1Ev@Base 2.5.8
 _ZN5StageC2Ev@Base 2.5.8
 _ZN5StageD0Ev@Base 2.5.8
 _ZN5StageD1Ev@Base 2.5.8
 _ZN5StageD2Ev@Base 2.5.8
 _ZN9Converter10_getCharFnEv@Base 2.5.8
 _ZN9Converter16ConvertBufferOptEPKhjPjPhjS2_jS2_@Base 2.5.8
 _ZN9Converter17_savePendingBytesEv@Base 2.5.8
 _ZN9Converter22_getCharWithSavedBytesEv@Base 2.5.8
 _ZN9Converter5ResetEv@Base 2.5.8
 _ZN9Converter7getCharEv@Base 2.5.8
 _ZN9Converter8ValidateEPKS_@Base 2.5.8
 _ZN9ConverterC1EPKhjbtt@Base 2.5.8
 _ZN9ConverterC2EPKhjbtt@Base 2.5.8
 _ZN9ConverterD0Ev@Base 2.5.8
 _ZN9ConverterD1Ev@Base 2.5.8
 _ZN9ConverterD2Ev@Base 2.5.8
 _ZNK4Pass10classMatchEjj@Base 2.5.8
 _ZNK4Pass14lookaheadCountEv@Base 2.5.8
 _ZNK4Pass14repClassMemberEjj@Base 2.5.8
 _ZNK5Stage14lookaheadCountEv@Base 2.5.8
 _ZNK9Converter10GetNamePtrEtRPKhRj@Base 2.5.8
 _ZNK9Converter8GetFlagsERjS0_@Base 2.5.8
 _ZNK9Converter9IsForwardEv@Base 2.5.8
 _ZTI10Normalizer@Base 2.5.8
 _ZTI4Pass@Base 2.5.8
 _ZTI5Stage@Base 2.5.8
 _ZTI9Converter@Base 2.5.8
 _ZTIN9Converter9ExceptionE@Base 2.5.8
 _ZTS10Normalizer@Base 2.5.8
 _ZTS4Pass@Base 2.5.8
 _ZTS5Stage@Base 2.5.8
 _ZTS9Converter@Base 2.5.8
 _ZTSN9Converter9ExceptionE@Base 2.5.8
 _ZTV10Normalizer@Base 2.5.8
 _ZTV4Pass@Base 2.5.8
 _ZTV5Stage@Base 2.5.8
 _ZTV9Converter@Base 2.5.8
libTECkit_Compiler.so.0 libteckit0 #MINVER#
 TECkit_Compile@Base 2.5.8
 TECkit_CompileOpt@Base 2.5.8
 TECkit_DisposeCompiled@Base 2.5.8
 TECkit_GetCompilerVersion@Base 2.5.8
 TECkit_GetTECkitName@Base 2.5.8
 TECkit_GetUnicodeName@Base 2.5.8
 TECkit_GetUnicodeValue@Base 2.5.8
 _ZN8Compiler10FinishPassEv@Base 2.5.8
 _ZN8Compiler10SkipSpacesEv@Base 2.5.8
 _ZN8Compiler10buildTableERSt6vectorINS_4RuleESaIS1_EEbbRNSt7__cxx1112basic_stringIcSt11char_traitsIcESaIcEEE@Base 2.5.8
 _ZN8Compiler10calcMaxLenEN9__gnu_cxx17__normal_iteratorIPNS_4ItemESt6vectorIS2_SaIS2_EEEES7_@Base 2.5.8
 _ZN8Compiler10classIndexEjRKSt6vectorIjSaIjEE@Base 2.5.8
 _ZN8Compiler11AppendClassERKNSt7__cxx1112basic_stringIcSt11char_traitsIcESaIcEEEb@Base 2.5.8
 _ZN8Compiler11ExpectTokenENS_9tokenTypeEPKc@Base 2.5.8
 _ZN8Compiler11ruleKeyCompERKNS_4RuleES2_@Base 2.5.8
 _ZN8Compiler12AppendToRuleERKNS_4ItemE@Base 2.5.8
 _ZN8Compiler12GetNextTokenEv@Base 2.5.8
 _ZN8Compiler12addToCharMapEjt@Base 2.5.8
 _ZN8Compiler12getContextIDB5cxx11ERKSt6vectorINS_4ItemESaIS1_EEb@Base 2.5.8
 _ZN8Compiler13AppendLiteralEjb@Base 2.5.8
 _ZN8Compiler13AppendSpecialEhb@Base 2.5.8
 _ZN8Compiler13appendToTableERNSt7__cxx1112basic_stringIcSt11char_traitsIcESaIcEEEPKcj@Base 2.5.8
 _ZN8Compiler13calcMaxOutLenERNS_4RuleE@Base 2.5.8
 _ZN8Compiler14ReadNameStringEt@Base 2.5.8
 _ZN8Compiler14associateItemsERSt6vectorINS_4RuleESaIS1_EEbb@Base 2.5.8
 _ZN8Compiler14reverseContextERKSt6vectorINS_4ItemESaIS1_EE@Base 2.5.8
 _ZN8Compiler15appendMatchElemERNSt7__cxx1112basic_stringIcSt11char_traitsIcESaIcEEERNS_4ItemEiRSt6vectorINS_8MatClassESaISA_EE@Base 2.5.8
 _ZN8Compiler16StartDefaultPassEv@Base 2.5.8
 _ZN8Compiler16findInitialItemsERKNS_4RuleEN9__gnu_cxx17__normal_iteratorIPKNS_4ItemESt6vectorIS5_SaIS5_EEEESB_RSA_@Base 2.5.8
 _ZN8Compiler16findInitialItemsERKNS_4RuleERSt6vectorINS_4ItemESaIS4_EE@Base 2.5.8
 _ZN8Compiler16isSingleCharRuleERKNS_4RuleE@Base 2.5.8
 _ZN8Compiler16setGroupPointersEN9__gnu_cxx17__normal_iteratorIPNS_4ItemESt6vectorIS2_SaIS2_EEEES7_ib@Base 2.5.8
 _ZN8Compiler16setGroupPointersERSt6vectorINS_4RuleESaIS1_EE@Base 2.5.8
 _ZN8Compiler17appendReplaceElemERNSt7__cxx1112basic_stringIcSt11char_traitsIcESaIcEEERNS_4ItemERSt6vectorIS7_SaIS7_EERS9_INS_8RepClassESaISD_EE@Base 2.5.8
 _ZN8Compiler19DetachCompiledTableEv@Base 2.5.8
 _ZN8Compiler4Pass5clearEv@Base 2.5.8
 _ZN8Compiler4Pass9setLineNoEj@Base 2.5.8
 _ZN8Compiler4PassD1Ev@Base 2.5.8
 _ZN8Compiler4PassD2Ev@Base 2.5.8
 _ZN8Compiler4RuleC1ERKSt6vectorINS_4ItemESaIS2_EES6_S6_S6_j@Base 2.5.8
 _ZN8Compiler4RuleC2ERKSt6vectorINS_4ItemESaIS2_EES6_S6_S6_j@Base 2.5.8
 _ZN8Compiler4RuleD1Ev@Base 2.5.8
 _ZN8Compiler4RuleD2Ev@Base 2.5.8
 _ZN8Compiler5ErrorEPKcS1_j@Base 2.5.8
 _ZN8Compiler5alignERNSt7__cxx1112basic_stringIcSt11char_traitsIcESaIcEEEi@Base 2.5.8
 _ZN8Compiler6asUTF8ENSt7__cxx1112basic_stringIjSt11char_traitsIjESaIjEEE@Base 2.5.8
 _ZN8Compiler6xmlOutEPKc@Base 2.5.8
 _ZN8Compiler6xmlOutERKNSt7__cxx1112basic_stringIcSt11char_traitsIcESaIcEEE@Base 2.5.8
 _ZN8Compiler6xmlOutEc@Base 2.5.8
 _ZN8Compiler7findTagERKNSt7__cxx1112basic_stringIcSt11char_traitsIcESaIcEEERKSt6vectorINS_4ItemESaIS9_EE@Base 2.5.8
 _ZN8Compiler7getCharEv@Base 2.5.8
 _ZN8Compiler8CurrRule5clearEv@Base 2.5.8
 _ZN8Compiler8CurrRule9setLineNoEj@Base 2.5.8
 _ZN8Compiler8CurrRuleD1Ev@Base 2.5.8
 _ZN8Compiler8CurrRuleD2Ev@Base 2.5.8
 _ZN8Compiler8IDlookupEPKcj@Base 2.5.8
 _ZN8Compiler8keywordsE@Base 2.5.8
 _ZN8Compiler9AppendUSVEjb@Base 2.5.8
 _ZN8Compiler9AssignTagERKNSt7__cxx1112basic_stringIcSt11char_traitsIcESaIcEEE@Base 2.5.8
 _ZN8Compiler9BuildVars5clearEv@Base 2.5.8
 _ZN8Compiler9BuildVarsD1Ev@Base 2.5.8
 _ZN8Compiler9BuildVarsD2Ev@Base 2.5.8
 _ZN8Compiler9SetMinMaxEii@Base 2.5.8
 _ZN8Compiler9charLimitEv@Base 2.5.8
 _ZN8Compiler9sortRulesERSt6vectorINS_4RuleESaIS1_EE@Base 2.5.8
 _ZN8Compiler9tagExistsEbRKNSt7__cxx1112basic_stringIcSt11char_traitsIcESaIcEEE@Base 2.5.8
 _ZN8Compiler9ungetCharEj@Base 2.5.8
 _ZN8Compiler9xmlStringB5cxx11EN9__gnu_cxx17__normal_iteratorIPKNS_4ItemESt6vectorIS2_SaIS2_EEEES8_b@Base 2.5.8
 _ZN8CompilerC1EPKcjcbbPFvPvS1_S1_jES2_@Base 2.5.8
 _ZN8CompilerC2EPKcjcbbPFvPvS1_S1_jES2_@Base 2.5.8
 _ZN8CompilerD1Ev@Base 2.5.8
 _ZN8CompilerD2Ev@Base 2.5.8
 _ZNK8Compiler16GetCompiledTableERPhRj@Base 2.5.8
 _ZNKSt5ctypeIcE8do_widenEc@Base 2.5.8
 _ZNSt6vectorI6LookupSaIS0_EE17_M_default_appendEm@Base 2.5.8
 _ZNSt6vectorI6MemberSaIS0_EE17_M_realloc_insertIJS0_EEEvN9__gnu_cxx17__normal_iteratorIPS0_S2_EEDpOT_@Base 2.5.8
 _ZNSt6vectorIN8Compiler4ItemESaIS1_EE13_M_insert_auxIS1_EEvN9__gnu_cxx17__normal_iteratorIPS1_S3_EEOT_@Base 2.5.8
 _ZNSt6vectorIN8Compiler4ItemESaIS1_EE15_M_range_insertIN9__gnu_cxx17__normal_iteratorIPS1_S3_EEEEvS8_T_S9_St20forward_iterator_tag@Base 2.5.8
 _ZNSt6vectorIN8Compiler4ItemESaIS1_EE17_M_realloc_insertIJRKS1_EEEvN9__gnu_cxx17__normal_iteratorIPS1_S3_EEDpOT_@Base 2.5.8
 _ZNSt6vectorIN8Compiler4ItemESaIS1_EE6insertEN9__gnu_cxx17__normal_iteratorIPKS1_S3_EERS6_@Base 2.5.8
 _ZNSt6vectorIN8Compiler4ItemESaIS1_EE8_M_eraseEN9__gnu_cxx17__normal_iteratorIPS1_S3_EE@Base 2.5.8
 _ZNSt6vectorIN8Compiler4ItemESaIS1_EED1Ev@Base 2.5.8
 _ZNSt6vectorIN8Compiler4ItemESaIS1_EED2Ev@Base 2.5.8
 _ZNSt6vectorIN8Compiler4ItemESaIS1_EEaSERKS3_@Base 2.5.8
 _ZNSt6vectorIN8Compiler4RuleESaIS1_EE12emplace_backIJS1_EEEvDpOT_@Base 2.5.8
 _ZNSt6vectorIN8Compiler4RuleESaIS1_EE17_M_realloc_insertIJRKS1_EEEvN9__gnu_cxx17__normal_iteratorIPS1_S3_EEDpOT_@Base 2.5.8
 _ZNSt6vectorIN8Compiler4RuleESaIS1_EED1Ev@Base 2.5.8
 _ZNSt6vectorIN8Compiler4RuleESaIS1_EED2Ev@Base 2.5.8
 _ZNSt6vectorIN8Compiler4RuleESaIS1_EEaSERKS3_@Base 2.5.8
 _ZNSt6vectorIN8Compiler5TokenESaIS1_EE17_M_realloc_insertIJRKS1_EEEvN9__gnu_cxx17__normal_iteratorIPS1_S3_EEDpOT_@Base 2.5.8
 _ZNSt6vectorIN8Compiler5TokenESaIS1_EEaSERKS3_@Base 2.5.8
 _ZNSt6vectorIN8Compiler8MatClassESaIS1_EE12emplace_backIJS1_EEEvDpOT_@Base 2.5.8+ds2-5ubuntu2
 _ZNSt6vectorIN8Compiler8RepClassESaIS1_EE17_M_realloc_insertIJS1_EEEvN9__gnu_cxx17__normal_iteratorIPS1_S3_EEDpOT_@Base 2.5.8
 _ZNSt6vectorINSt7__cxx1112basic_stringIcSt11char_traitsIcESaIcEEESaIS5_EE12emplace_backIJS5_EEEvDpOT_@Base 2.5.8
 _ZNSt6vectorINSt7__cxx1112basic_stringIcSt11char_traitsIcESaIcEEESaIS5_EE17_M_default_appendEm@Base 2.5.8
 _ZNSt6vectorINSt7__cxx1112basic_stringIcSt11char_traitsIcESaIcEEESaIS5_EE17_M_realloc_insertIJRKS5_EEEvN9__gnu_cxx17__normal_iteratorIPS5_S7_EEDpOT_@Base 2.5.8
 _ZNSt6vectorINSt7__cxx1112basic_stringIcSt11char_traitsIcESaIcEEESaIS5_EE17_M_realloc_insertIJS5_EEEvN9__gnu_cxx17__normal_iteratorIPS5_S7_EEDpOT_@Base 2.5.8
 _ZNSt6vectorINSt7__cxx1112basic_stringIcSt11char_traitsIcESaIcEEESaIS5_EED1Ev@Base 2.5.8
 _ZNSt6vectorINSt7__cxx1112basic_stringIcSt11char_traitsIcESaIcEEESaIS5_EED2Ev@Base 2.5.8
 _ZNSt6vectorIS_IjSaIjEESaIS1_EE17_M_default_appendEm@Base 2.5.8
 _ZNSt6vectorIS_IjSaIjEESaIS1_EE17_M_realloc_insertIJRKS1_EEEvN9__gnu_cxx17__normal_iteratorIPS1_S3_EEDpOT_@Base 2.5.8
 _ZNSt6vectorIS_ItSaItEESaIS1_EE17_M_default_appendEm@Base 2.5.8
 _ZNSt6vectorIjSaIjEE17_M_default_appendEm@Base 2.5.8
 _ZNSt6vectorIjSaIjEE17_M_realloc_insertIJRKjEEEvN9__gnu_cxx17__normal_iteratorIPjS1_EEDpOT_@Base 2.5.8
 _ZNSt6vectorItSaItEE17_M_default_appendEm@Base 2.5.8
 _ZNSt6vectorItSaItEE17_M_realloc_insertIJRKtEEEvN9__gnu_cxx17__normal_iteratorIPtS1_EEDpOT_@Base 2.5.8
 _ZNSt7__cxx1112basic_stringIcSt11char_traitsIcESaIcEE12_M_constructIPKcEEvT_S8_St20forward_iterator_tag@Base 2.5.8
 _ZNSt7__cxx1112basic_stringIcSt11char_traitsIcESaIcEE12_M_constructIPcEEvT_S7_St20forward_iterator_tag@Base 2.5.8
 _ZNSt7__cxx1112basic_stringIjSt11char_traitsIjESaIjEE12_M_constructIPjEEvT_S7_St20forward_iterator_tag@Base 2.5.8
 _ZNSt7__cxx1112basic_stringIjSt11char_traitsIjESaIjEE14_M_replace_auxEmmmj@Base 2.5.8
 _ZNSt7__cxx1112basic_stringIjSt11char_traitsIjESaIjEE8_M_eraseEmm@Base 2.5.8+ds2-5ubuntu2
 _ZNSt7__cxx1112basic_stringIjSt11char_traitsIjESaIjEE9_M_assignERKS4_@Base 2.5.8
 _ZNSt7__cxx1112basic_stringIjSt11char_traitsIjESaIjEE9_M_createERmm@Base 2.5.8
 _ZNSt7__cxx1112basic_stringIjSt11char_traitsIjESaIjEE9_M_mutateEmmPKjm@Base 2.5.8
 _ZNSt8_Rb_treeINSt7__cxx1112basic_stringIcSt11char_traitsIcESaIcEEESt4pairIKS5_S5_ESt10_Select1stIS8_ESt4lessIS5_ESaIS8_EE22_M_emplace_hint_uniqueIJRKSt21piecewise_construct_tSt5tupleIJRS7_EESJ_IJEEEEESt17_Rb_tree_iteratorIS8_ESt23_Rb_tree_const_iteratorIS8_EDpOT_@Base 2.5.8
 _ZNSt8_Rb_treeINSt7__cxx1112basic_stringIcSt11char_traitsIcESaIcEEESt4pairIKS5_S5_ESt10_Select1stIS8_ESt4lessIS5_ESaIS8_EE24_M_get_insert_unique_posERS7_@Base 2.5.8
 _ZNSt8_Rb_treeINSt7__cxx1112basic_stringIcSt11char_traitsIcESaIcEEESt4pairIKS5_S5_ESt10_Select1stIS8_ESt4lessIS5_ESaIS8_EE29_M_get_insert_hint_unique_posESt23_Rb_tree_const_iteratorIS8_ERS7_@Base 2.5.8
 _ZNSt8_Rb_treeINSt7__cxx1112basic_stringIcSt11char_traitsIcESaIcEEESt4pairIKS5_S5_ESt10_Select1stIS8_ESt4lessIS5_ESaIS8_EE8_M_eraseEPSt13_Rb_tree_nodeIS8_E@Base 2.5.8
 _ZNSt8_Rb_treeINSt7__cxx1112basic_stringIcSt11char_traitsIcESaIcEEESt4pairIKS5_St6vectorIN8Compiler5TokenESaISA_EEESt10_Select1stISD_ESt4lessIS5_ESaISD_EE22_M_emplace_hint_uniqueIJRKSt21piecewise_construct_tSt5tupleIJRS7_EESO_IJEEEEESt17_Rb_tree_iteratorISD_ESt23_Rb_tree_const_iteratorISD_EDpOT_@Base 2.5.8
 _ZNSt8_Rb_treeINSt7__cxx1112basic_stringIcSt11char_traitsIcESaIcEEESt4pairIKS5_St6vectorIN8Compiler5TokenESaISA_EEESt10_Select1stISD_ESt4lessIS5_ESaISD_EE24_M_get_insert_unique_posERS7_@Base 2.5.8
 _ZNSt8_Rb_treeINSt7__cxx1112basic_stringIcSt11char_traitsIcESaIcEEESt4pairIKS5_St6vectorIN8Compiler5TokenESaISA_EEESt10_Select1stISD_ESt4lessIS5_ESaISD_EE29_M_get_insert_hint_unique_posESt23_Rb_tree_const_iteratorISD_ERS7_@Base 2.5.8
 _ZNSt8_Rb_treeINSt7__cxx1112basic_stringIcSt11char_traitsIcESaIcEEESt4pairIKS5_St6vectorIN8Compiler5TokenESaISA_EEESt10_Select1stISD_ESt4lessIS5_ESaISD_EE8_M_eraseEPSt13_Rb_tree_nodeISD_E@Base 2.5.8
 _ZNSt8_Rb_treeINSt7__cxx1112basic_stringIcSt11char_traitsIcESaIcEEESt4pairIKS5_jESt10_Select1stIS8_ESt4lessIS5_ESaIS8_EE22_M_emplace_hint_uniqueIJRKSt21piecewise_construct_tSt5tupleIJRS7_EESJ_IJEEEEESt17_Rb_tree_iteratorIS8_ESt23_Rb_tree_const_iteratorIS8_EDpOT_@Base 2.5.8
 _ZNSt8_Rb_treeINSt7__cxx1112basic_stringIcSt11char_traitsIcESaIcEEESt4pairIKS5_jESt10_Select1stIS8_ESt4lessIS5_ESaIS8_EE24_M_get_insert_unique_posERS7_@Base 2.5.8
 _ZNSt8_Rb_treeINSt7__cxx1112basic_stringIcSt11char_traitsIcESaIcEEESt4pairIKS5_jESt10_Select1stIS8_ESt4lessIS5_ESaIS8_EE29_M_get_insert_hint_unique_posESt23_Rb_tree_const_iteratorIS8_ERS7_@Base 2.5.8
 _ZNSt8_Rb_treeINSt7__cxx1112basic_stringIcSt11char_traitsIcESaIcEEESt4pairIKS5_jESt10_Select1stIS8_ESt4lessIS5_ESaIS8_EE4findERS7_@Base 2.5.8
 _ZNSt8_Rb_treeINSt7__cxx1112basic_stringIcSt11char_traitsIcESaIcEEESt4pairIKS5_jESt10_Select1stIS8_ESt4lessIS5_ESaIS8_EE8_M_eraseEPSt13_Rb_tree_nodeIS8_E@Base 2.5.8
 _ZNSt8_Rb_treeIjSt4pairIKjtESt10_Select1stIS2_ESt4lessIjESaIS2_EE22_M_emplace_hint_uniqueIJRKSt21piecewise_construct_tSt5tupleIJRS1_EESD_IJEEEEESt17_Rb_tree_iteratorIS2_ESt23_Rb_tree_const_iteratorIS2_EDpOT_@Base 2.5.8
 _ZNSt8_Rb_treeIjSt4pairIKjtESt10_Select1stIS2_ESt4lessIjESaIS2_EE24_M_get_insert_unique_posERS1_@Base 2.5.8
 _ZNSt8_Rb_treeIjSt4pairIKjtESt10_Select1stIS2_ESt4lessIjESaIS2_EE29_M_get_insert_hint_unique_posESt23_Rb_tree_const_iteratorIS2_ERS1_@Base 2.5.8
 _ZNSt8_Rb_treeIjSt4pairIKjtESt10_Select1stIS2_ESt4lessIjESaIS2_EE8_M_eraseEPSt13_Rb_tree_nodeIS2_E@Base 2.5.8
 _ZNSt8_Rb_treeItSt4pairIKtNSt7__cxx1112basic_stringIcSt11char_traitsIcESaIcEEEESt10_Select1stIS8_ESt4lessItESaIS8_EE14_M_insert_nodeEPSt18_Rb_tree_node_baseSG_PSt13_Rb_tree_nodeIS8_E@Base 2.5.8
 _ZNSt8_Rb_treeItSt4pairIKtNSt7__cxx1112basic_stringIcSt11char_traitsIcESaIcEEEESt10_Select1stIS8_ESt4lessItESaIS8_EE22_M_emplace_hint_uniqueIJRKSt21piecewise_construct_tSt5tupleIJRS1_EESJ_IJEEEEESt17_Rb_tree_iteratorIS8_ESt23_Rb_tree_const_iteratorIS8_EDpOT_@Base 2.5.8
 _ZNSt8_Rb_treeItSt4pairIKtNSt7__cxx1112basic_stringIcSt11char_traitsIcESaIcEEEESt10_Select1stIS8_ESt4lessItESaIS8_EE24_M_get_insert_unique_posERS1_@Base 2.5.8
 _ZNSt8_Rb_treeItSt4pairIKtNSt7__cxx1112basic_stringIcSt11char_traitsIcESaIcEEEESt10_Select1stIS8_ESt4lessItESaIS8_EE29_M_get_insert_hint_unique_posESt23_Rb_tree_const_iteratorIS8_ERS1_@Base 2.5.8
 _ZNSt8_Rb_treeItSt4pairIKtNSt7__cxx1112basic_stringIcSt11char_traitsIcESaIcEEEESt10_Select1stIS8_ESt4lessItESaIS8_EE8_M_eraseEPSt13_Rb_tree_nodeIS8_E@Base 2.5.8
 _ZNSt8_Rb_treeItSt4pairIKtjESt10_Select1stIS2_ESt4lessItESaIS2_EE22_M_emplace_hint_uniqueIJRKSt21piecewise_construct_tSt5tupleIJOtEESD_IJEEEEESt17_Rb_tree_iteratorIS2_ESt23_Rb_tree_const_iteratorIS2_EDpOT_@Base 2.5.8
 _ZNSt8_Rb_treeItSt4pairIKtjESt10_Select1stIS2_ESt4lessItESaIS2_EE24_M_get_insert_unique_posERS1_@Base 2.5.8
 _ZNSt8_Rb_treeItSt4pairIKtjESt10_Select1stIS2_ESt4lessItESaIS2_EE29_M_get_insert_hint_unique_posESt23_Rb_tree_const_iteratorIS2_ERS1_@Base 2.5.8
 _ZNSt8_Rb_treeItSt4pairIKtjESt10_Select1stIS2_ESt4lessItESaIS2_EE8_M_eraseEPSt13_Rb_tree_nodeIS2_E@Base 2.5.8
 _ZSt13__adjust_heapIN9__gnu_cxx17__normal_iteratorIP6MemberSt6vectorIS2_SaIS2_EEEElS2_NS0_5__ops15_Iter_less_iterEEvT_T0_SB_T1_T2_@Base 2.5.8
 _ZSt13__adjust_heapIN9__gnu_cxx17__normal_iteratorIPjSt6vectorIjSaIjEEEEljNS0_5__ops15_Iter_less_iterEEvT_T0_SA_T1_T2_@Base 2.5.8
 _ZSt13__adjust_heapIN9__gnu_cxx17__normal_iteratorIPtSt6vectorItSaItEEEEltNS0_5__ops15_Iter_less_iterEEvT_T0_SA_T1_T2_@Base 2.5.8
 _ZSt16__insertion_sortIN9__gnu_cxx17__normal_iteratorIP6MemberSt6vectorIS2_SaIS2_EEEENS0_5__ops15_Iter_less_iterEEvT_SA_T0_@Base 2.5.8
 _ZSt16__insertion_sortIN9__gnu_cxx17__normal_iteratorIPjSt6vectorIjSaIjEEEENS0_5__ops15_Iter_less_iterEEvT_S9_T0_@Base 2.5.8
 _ZSt16__insertion_sortIN9__gnu_cxx17__normal_iteratorIPtSt6vectorItSaItEEEENS0_5__ops15_Iter_less_iterEEvT_S9_T0_@Base 2.5.8
 _ZSt16__introsort_loopIN9__gnu_cxx17__normal_iteratorIPjSt6vectorIjSaIjEEEElNS0_5__ops15_Iter_less_iterEEvT_S9_T0_T1_@Base 2.5.8
 _ZSt16__introsort_loopIN9__gnu_cxx17__normal_iteratorIPtSt6vectorItSaItEEEElNS0_5__ops15_Iter_less_iterEEvT_S9_T0_T1_@Base 2.5.8
 gUnicodeNames@Base 2.5.8
