libtsk.so.13 libtsk13 #MINVER#
 TSK_MD5_Final@Base 4.2.0
 TSK_MD5_Init@Base 4.2.0
 TSK_MD5_Update@Base 4.2.0
 TSK_SHA_Final@Base 4.2.0
 TSK_SHA_Init@Base 4.2.0
 TSK_SHA_Update@Base 4.2.0
 _Z13hexPairToCharcc@Base 4.3.0
 _Z14hexDigitToCharc@Base 4.3.0
 _Z15ewf_get_detailsB5cxx11P12IMG_EWF_INFO@Base 4.6.7
 _Z20tsk_fs_file_cpp_c_cbP11TSK_FS_FILElmPcm22TSK_FS_BLOCK_FLAG_ENUMPv@Base 4.3.0
 _Z20tsk_fs_jblk_cpp_c_cbP11TSK_FS_INFOPciPv@Base 4.2.0
 _Z21tsk_fs_block_cpp_c_cbPK12TSK_FS_BLOCKPv@Base 4.2.0
 _Z22tsk_fs_jentry_cpp_c_cbP11TSK_FS_INFOP13TSK_FS_JENTRYiPv@Base 4.2.0
 _Z24tsk_fs_dir_walk_cpp_c_cbP11TSK_FS_FILEPKcPv@Base 4.2.0
 _Z25tsk_fs_meta_walk_cpp_c_cbP11TSK_FS_FILEPv@Base 4.2.0
 _Z25tsk_vs_part_walk_cpp_c_cbP11TSK_VS_INFOPK16TSK_VS_PART_INFOPv@Base 4.2.0
 _ZGTtNKSt13bad_exception4whatEv@Base 0
 _ZGTtNKSt13bad_exceptionD1Ev@Base 0
 _ZGTtNKSt9exception4whatEv@Base 0
 _ZGTtNKSt9exceptionD1Ev@Base 0
 _ZN10__cxxabiv111__terminateEPFvvE@Base 0
 _ZN10__cxxabiv112__unexpectedEPFvvE@Base 0
 _ZN10__cxxabiv115__forced_unwindD0Ev@Base 0
 _ZN10__cxxabiv115__forced_unwindD1Ev@Base 0
 _ZN10__cxxabiv115__forced_unwindD2Ev@Base 0
 _ZN10__cxxabiv117__class_type_infoD0Ev@Base 0
 _ZN10__cxxabiv117__class_type_infoD1Ev@Base 0
 _ZN10__cxxabiv117__class_type_infoD2Ev@Base 0
 _ZN10__cxxabiv119__foreign_exceptionD0Ev@Base 0
 _ZN10__cxxabiv119__foreign_exceptionD1Ev@Base 0
 _ZN10__cxxabiv119__foreign_exceptionD2Ev@Base 0
 _ZN10__cxxabiv119__terminate_handlerE@Base 0
 _ZN10__cxxabiv120__si_class_type_infoD0Ev@Base 0
 _ZN10__cxxabiv120__si_class_type_infoD1Ev@Base 0
 _ZN10__cxxabiv120__si_class_type_infoD2Ev@Base 0
 _ZN10__cxxabiv120__unexpected_handlerE@Base 0
 _ZN11TskDbSqlite10getFsInfosElRSt6vectorI15_TSK_DB_FS_INFOSaIS1_EE@Base 4.3.0
 _ZN11TskDbSqlite10getVsInfosElRSt6vectorI15_TSK_DB_VS_INFOSaIS1_EE@Base 4.3.0
 _ZN11TskDbSqlite10initializeEv@Base 0
 _ZN11TskDbSqlite10storeObjIdERKlPK11TSK_FS_FILEPKcS1_@Base 4.3.0
 _ZN11TskDbSqlite12addImageInfoEiiRlRKNSt7__cxx1112basic_stringIcSt11char_traitsIcESaIcEEE@Base 4.3.0
 _ZN11TskDbSqlite12addImageInfoEiiRlRKNSt7__cxx1112basic_stringIcSt11char_traitsIcESaIcEEElS8_S8_S8_@Base 4.3.0
 _ZN11TskDbSqlite12addImageInfoEilRlRKNSt7__cxx1112basic_stringIcSt11char_traitsIcESaIcEEElS8_S8_S8_S8_S8_@Base 4.3.0
 _ZN11TskDbSqlite12addImageNameElPKci@Base 4.3.0
 _ZN11TskDbSqlite12attempt_execEPKcPFiPviPPcS4_ES2_S1_@Base 0
 _ZN11TskDbSqlite12attempt_execEPKcS1_@Base 0
 _ZN11TskDbSqlite12findParObjIdEPK11TSK_FS_FILEPKcRKl@Base 4.3.0
 _ZN11TskDbSqlite12prepare_stmtEPKcPP12sqlite3_stmt@Base 0
 _ZN11TskDbSqlite13addCarvedFileEllmRSt6vectorI25_TSK_DB_FILE_LAYOUT_RANGESaIS1_EERll@Base 4.3.0
 _ZN11TskDbSqlite13addVirtualDirEllPKcRll@Base 4.3.0
 _ZN11TskDbSqlite13addVolumeInfoEPK16TSK_VS_PART_INFOlRl@Base 4.3.0
 _ZN11TskDbSqlite13createIndexesEv@Base 0
 _ZN11TskDbSqlite13getObjectInfoElR14_TSK_DB_OBJECT@Base 4.3.0
 _ZN11TskDbSqlite13inTransactionEv@Base 4.2.0
 _ZN11TskDbSqlite14getFileLayoutsERSt6vectorI25_TSK_DB_FILE_LAYOUT_RANGESaIS1_EE@Base 4.2.0
 _ZN11TskDbSqlite14getVsPartInfosElRSt6vectorI20_TSK_DB_VS_PART_INFOSaIS1_EE@Base 4.3.0
 _ZN11TskDbSqlite15createSavepointEPKc@Base 4.2.0
 _ZN11TskDbSqlite15revertSavepointEPKc@Base 4.2.0
 _ZN11TskDbSqlite16getParentImageIdElRl@Base 4.3.0
 _ZN11TskDbSqlite16releaseSavepointEPKc@Base 4.2.0
 _ZN11TskDbSqlite17addLayoutFileInfoEll22TSK_DB_FILES_TYPE_ENUMPKcmRll@Base 4.3.0
 _ZN11TskDbSqlite18addFileLayoutRangeERK25_TSK_DB_FILE_LAYOUT_RANGE@Base 4.2.0
 _ZN11TskDbSqlite18addFileLayoutRangeElmmi@Base 4.3.0
 _ZN11TskDbSqlite18addUnusedBlockFileEllmRSt6vectorI25_TSK_DB_FILE_LAYOUT_RANGESaIS1_EERll@Base 4.3.0
 _ZN11TskDbSqlite19addUnallocBlockFileEllmRSt6vectorI25_TSK_DB_FILE_LAYOUT_RANGESaIS1_EERll@Base 4.3.0
 _ZN11TskDbSqlite21setupFilePreparedStmtEv@Base 0
 _ZN11TskDbSqlite22addFileWithLayoutRangeE22TSK_DB_FILES_TYPE_ENUMllmRSt6vectorI25_TSK_DB_FILE_LAYOUT_RANGESaIS2_EERll@Base 4.3.0
 _ZN11TskDbSqlite22getFsRootDirObjectInfoElR14_TSK_DB_OBJECT@Base 4.3.0
 _ZN11TskDbSqlite23cleanupFilePreparedStmtEv@Base 0
 _ZN11TskDbSqlite28addUnallocFsBlockFilesParentElRll@Base 4.3.0
 _ZN11TskDbSqlite4hashEPKh@Base 0
 _ZN11TskDbSqlite4openEb@Base 4.2.0
 _ZN11TskDbSqlite5closeEv@Base 4.2.0
 _ZN11TskDbSqlite7addFileEP11TSK_FS_FILEPK11TSK_FS_ATTRPKcPKh23TSK_DB_FILES_KNOWN_ENUMllRll@Base 4.3.0
 _ZN11TskDbSqlite7attemptEiPKc@Base 0
 _ZN11TskDbSqlite7attemptEiiPKc@Base 0
 _ZN11TskDbSqlite8dbExistsEv@Base 4.3.0
 _ZN11TskDbSqlite8isDbOpenEv@Base 4.3.0
 _ZN11TskDbSqlite9addFsFileEP11TSK_FS_FILEPK11TSK_FS_ATTRPKcPKh23TSK_DB_FILES_KNOWN_ENUMlRll@Base 4.3.0
 _ZN11TskDbSqlite9addFsInfoEPK11TSK_FS_INFOlRl@Base 4.3.0
 _ZN11TskDbSqlite9addObjectE23TSK_DB_OBJECT_TYPE_ENUMlRl@Base 4.3.0
 _ZN11TskDbSqlite9addVsInfoEPK11TSK_VS_INFOlRl@Base 4.3.0
 _ZN11TskDbSqlite9getVsInfoElR15_TSK_DB_VS_INFO@Base 4.3.0
 _ZN11TskDbSqliteC1EPKcb@Base 4.2.0
 _ZN11TskDbSqliteC2EPKcb@Base 4.2.0
 _ZN11TskDbSqliteD0Ev@Base 4.2.0
 _ZN11TskDbSqliteD1Ev@Base 4.2.0
 _ZN11TskDbSqliteD2Ev@Base 4.2.0
 _ZN11TskHashInfoD1Ev@Base 4.2.0
 _ZN11TskHashInfoD2Ev@Base 4.2.0
 _ZN19TskIsImageSupported11handleErrorEv@Base 4.5.0
 _ZN19TskIsImageSupported11processFileEP11TSK_FS_FILEPKc@Base 4.5.0
 _ZN19TskIsImageSupported16isImageSupportedEv@Base 4.5.0
 _ZN19TskIsImageSupported8filterFsEP11TSK_FS_INFO@Base 4.5.0
 _ZN19TskIsImageSupported9filterVolEPK16TSK_VS_PART_INFO@Base 4.5.0
 _ZN19TskIsImageSupportedC1Ev@Base 4.5.0
 _ZN19TskIsImageSupportedC2Ev@Base 4.5.0
 _ZN19TskIsImageSupportedD0Ev@Base 4.5.0
 _ZN19TskIsImageSupportedD1Ev@Base 4.5.0
 _ZN19TskIsImageSupportedD2Ev@Base 4.5.0
 _ZN4GuidC1EPKh@Base 4.2.0
 _ZN4GuidC1ERKNSt7__cxx1112basic_stringIcSt11char_traitsIcESaIcEEE@Base 4.2.0
 _ZN4GuidC1ERKS_@Base 4.2.0
 _ZN4GuidC1ERKSt6vectorIhSaIhEE@Base 4.2.0
 _ZN4GuidC1Ev@Base 4.2.0
 _ZN4GuidC2EPKh@Base 4.2.0
 _ZN4GuidC2ERKNSt7__cxx1112basic_stringIcSt11char_traitsIcESaIcEEE@Base 4.2.0
 _ZN4GuidC2ERKS_@Base 4.2.0
 _ZN4GuidC2ERKSt6vectorIhSaIhEE@Base 4.2.0
 _ZN4GuidC2Ev@Base 4.2.0
 _ZN4GuidaSERKS_@Base 4.2.0
 _ZN5TskDb17setConnectionInfoEP20CaseDbConnectionInfo@Base 4.3.0
 _ZN5TskDb20getParentPathAndNameEPKcPS1_S2_@Base 4.6.1
 _ZN5TskDbC1EPKcb@Base 4.3.0
 _ZN5TskDbC2EPKcb@Base 4.3.0
 _ZN7TskAuto10closeImageEv@Base 4.2.0
 _ZN7TskAuto11handleErrorEv@Base 4.2.0
 _ZN7TskAuto12error_recordD1Ev@Base 4.2.0
 _ZN7TskAuto12error_recordD2Ev@Base 4.2.0
 _ZN7TskAuto12getErrorListEv@Base 4.2.0
 _ZN7TskAuto12setCurVsPartEPK16TSK_VS_PART_INFO@Base 4.2.0
 _ZN7TskAuto13findFilesInFsEP11TSK_FS_INFO@Base 4.2.0
 _ZN7TskAuto13findFilesInFsEl16TSK_FS_TYPE_ENUM@Base 4.3.0
 _ZN7TskAuto13findFilesInFsEl16TSK_FS_TYPE_ENUMm@Base 4.3.0
 _ZN7TskAuto13findFilesInFsEl@Base 4.3.0
 _ZN7TskAuto13findFilesInFsElm@Base 4.3.0
 _ZN7TskAuto13findFilesInVsEl16TSK_VS_TYPE_ENUM@Base 4.3.0
 _ZN7TskAuto13findFilesInVsEl@Base 4.3.0
 _ZN7TskAuto13isDefaultTypeEP11TSK_FS_FILEPK11TSK_FS_ATTR@Base 4.2.0
 _ZN7TskAuto13isNonResidentEPK11TSK_FS_ATTR@Base 4.2.0
 _ZN7TskAuto13openImageUtf8EiPKPKc17TSK_IMG_TYPE_ENUMj@Base 4.2.0
 _ZN7TskAuto13registerErrorEv@Base 4.2.0
 _ZN7TskAuto14findFilesInImgEv@Base 4.2.0
 _ZN7TskAuto14resetErrorListEv@Base 4.2.0
 _ZN7TskAuto15openImageHandleEP12TSK_IMG_INFO@Base 4.2.0
 _ZN7TskAuto16findFilesInFsIntEP11TSK_FS_INFOm@Base 4.3.0
 _ZN7TskAuto16findFilesInFsRetEl16TSK_FS_TYPE_ENUM@Base 4.3.0
 _ZN7TskAuto16isFATSystemFilesEP11TSK_FS_FILE@Base 4.2.0
 _ZN7TskAuto16processAttributeEP11TSK_FS_FILEPK11TSK_FS_ATTRPKc@Base 4.2.0
 _ZN7TskAuto17enableImageWriterEPKc@Base 4.4.1
 _ZN7TskAuto17isNtfsSystemFilesEP11TSK_FS_FILEPKc@Base 4.2.0
 _ZN7TskAuto17processAttributesEP11TSK_FS_FILEPKc@Base 4.2.0
 _ZN7TskAuto17setStopProcessingEv@Base 4.2.0
 _ZN7TskAuto17setVolFilterFlagsE21TSK_VS_PART_FLAG_ENUM@Base 4.2.0
 _ZN7TskAuto18disableImageWriterEv@Base 4.4.1
 _ZN7TskAuto18setFileFilterFlagsE25TSK_FS_DIR_WALK_FLAG_ENUM@Base 4.2.0
 _ZN7TskAuto19errorRecordToStringB5cxx11ERNS_12error_recordE@Base 4.2.0
 _ZN7TskAuto5isDirEP11TSK_FS_FILE@Base 4.2.0
 _ZN7TskAuto6isFileEP11TSK_FS_FILE@Base 4.2.0
 _ZN7TskAuto8filterFsEP11TSK_FS_INFO@Base 4.2.0
 _ZN7TskAuto8filterVsEPK11TSK_VS_INFO@Base 4.2.0
 _ZN7TskAuto8isDotDirEP11TSK_FS_FILE@Base 4.2.0
 _ZN7TskAuto8vsWalkCbEP11TSK_VS_INFOPK16TSK_VS_PART_INFOPv@Base 4.2.0
 _ZN7TskAuto9dirWalkCbEP11TSK_FS_FILEPKcPv@Base 4.2.0
 _ZN7TskAuto9filterVolEPK16TSK_VS_PART_INFO@Base 4.2.0
 _ZN7TskAuto9openImageEiPKPKc17TSK_IMG_TYPE_ENUMj@Base 4.2.0
 _ZN7TskAutoC1Ev@Base 4.2.0
 _ZN7TskAutoC2Ev@Base 4.2.0
 _ZN7TskAutoD0Ev@Base 4.2.0
 _ZN7TskAutoD1Ev@Base 4.2.0
 _ZN7TskAutoD2Ev@Base 4.2.0
 _ZN9TskAutoDb10closeImageEv@Base 4.2.0
 _ZN9TskAutoDb11md5HashAttrEPhPK11TSK_FS_ATTR@Base 0
 _ZN9TskAutoDb11processFileEP11TSK_FS_FILEPKc@Base 4.2.0
 _ZN9TskAutoDb12stopAddImageEv@Base 4.2.0
 _ZN9TskAutoDb13openImageUtf8EiPKPKc17TSK_IMG_TYPE_ENUMjS1_@Base 4.3.0
 _ZN9TskAutoDb13startAddImageEP12TSK_IMG_INFOPKc@Base 4.4.1
 _ZN9TskAutoDb13startAddImageEiPKPKc17TSK_IMG_TYPE_ENUMjS1_@Base 4.3.0
 _ZN9TskAutoDb14commitAddImageEv@Base 4.2.0
 _ZN9TskAutoDb14createBlockMapEb@Base 4.2.0
 _ZN9TskAutoDb14insertFileDataEP11TSK_FS_FILEPK11TSK_FS_ATTRPKcPKh23TSK_DB_FILES_KNOWN_ENUM@Base 0
 _ZN9TskAutoDb14revertAddImageEv@Base 4.2.0
 _ZN9TskAutoDb15addImageDetailsEPKc@Base 0
 _ZN9TskAutoDb15md5HashCallbackEP11TSK_FS_FILElmPcm22TSK_FS_BLOCK_FLAG_ENUMPv@Base 0
 _ZN9TskAutoDb16addFsInfoUnallocERK15_TSK_DB_FS_INFO@Base 0
 _ZN9TskAutoDb16processAttributeEP11TSK_FS_FILEPK11TSK_FS_ATTRPKc@Base 4.2.0
 _ZN9TskAutoDb17addFilesInImgToDbEv@Base 4.2.0
 _ZN9TskAutoDb17setAddFileSystemsEb@Base 4.4.0
 _ZN9TskAutoDb17setNoFatFsOrphansEb@Base 4.2.0
 _ZN9TskAutoDb18setAddUnallocSpaceEb@Base 4.2.0
 _ZN9TskAutoDb18setAddUnallocSpaceEbl@Base 4.3.0
 _ZN9TskAutoDb18setAddUnallocSpaceEll@Base 4.5.0
 _ZN9TskAutoDb19addUnallocSpaceToDbEv@Base 0
 _ZN9TskAutoDb21addUnallocFsSpaceToDbERm@Base 0
 _ZN9TskAutoDb21addUnallocVsSpaceToDbERm@Base 0
 _ZN9TskAutoDb21fsWalkUnallocBlocksCbEPK12TSK_FS_BLOCKPv@Base 0
 _ZN9TskAutoDb24addUnallocImageSpaceToDbEv@Base 0
 _ZN9TskAutoDb5setTzENSt7__cxx1112basic_stringIcSt11char_traitsIcESaIcEEE@Base 4.2.0
 _ZN9TskAutoDb8filterFsEP11TSK_FS_INFO@Base 4.2.0
 _ZN9TskAutoDb8filterVsEPK11TSK_VS_INFO@Base 4.2.0
 _ZN9TskAutoDb8isDbOpenEv@Base 4.3.0
 _ZN9TskAutoDb9filterVolEPK16TSK_VS_PART_INFO@Base 4.2.0
 _ZN9TskAutoDb9getCurDirB5cxx11Ev@Base 4.2.0
 _ZN9TskAutoDb9hashFilesEb@Base 4.2.0
 _ZN9TskAutoDb9openImageEPKc@Base 4.4.1
 _ZN9TskAutoDb9openImageEiPKPKc17TSK_IMG_TYPE_ENUMjS1_@Base 4.3.0
 _ZN9TskAutoDbC1EP5TskDbP12TSK_HDB_INFOS3_@Base 4.3.0
 _ZN9TskAutoDbC2EP5TskDbP12TSK_HDB_INFOS3_@Base 4.3.0
 _ZN9TskAutoDbD0Ev@Base 4.2.0
 _ZN9TskAutoDbD1Ev@Base 4.2.0
 _ZN9TskAutoDbD2Ev@Base 4.2.0
 _ZN9TskCaseDb12initAddImageEv@Base 4.2.0
 _ZN9TskCaseDb13setNSRLHashDbEPc@Base 4.2.0
 _ZN9TskCaseDb17setKnownBadHashDbEPc@Base 4.2.0
 _ZN9TskCaseDb20clearLookupDatabasesEv@Base 4.2.0
 _ZN9TskCaseDb5newDbEPKc@Base 4.2.0
 _ZN9TskCaseDb5newDbEPKcP20CaseDbConnectionInfo@Base 4.3.0
 _ZN9TskCaseDb6openDbEPKc@Base 4.2.0
 _ZN9TskCaseDb6openDbEPKcP20CaseDbConnectionInfo@Base 4.3.0
 _ZN9TskCaseDb8addImageEiPKPKc17TSK_IMG_TYPE_ENUMj@Base 4.2.0
 _ZN9TskCaseDbC1EP5TskDb@Base 4.3.0
 _ZN9TskCaseDbC2EP5TskDb@Base 4.3.0
 _ZN9TskCaseDbD1Ev@Base 4.2.0
 _ZN9TskCaseDbD2Ev@Base 4.2.0
 _ZN9__gnu_cxx24__concurrence_lock_errorD0Ev@Base 0
 _ZN9__gnu_cxx24__concurrence_lock_errorD1Ev@Base 0
 _ZN9__gnu_cxx24__concurrence_lock_errorD2Ev@Base 0
 _ZN9__gnu_cxx26__concurrence_unlock_errorD0Ev@Base 0
 _ZN9__gnu_cxx26__concurrence_unlock_errorD1Ev@Base 0
 _ZN9__gnu_cxx26__concurrence_unlock_errorD2Ev@Base 0
 _ZN9__gnu_cxx27__verbose_terminate_handlerEv@Base 0
 _ZN9__gnu_cxx30__throw_concurrence_lock_errorEv@Base 0
 _ZN9__gnu_cxx9__freeresEv@Base 0
 _ZNK10__cxxabiv117__class_type_info10__do_catchEPKSt9type_infoPPvj@Base 0
 _ZNK10__cxxabiv117__class_type_info11__do_upcastEPKS0_PKvRNS0_15__upcast_resultE@Base 0
 _ZNK10__cxxabiv117__class_type_info11__do_upcastEPKS0_PPv@Base 0
 _ZNK10__cxxabiv117__class_type_info12__do_dyncastElNS0_10__sub_kindEPKS0_PKvS3_S5_RNS0_16__dyncast_resultE@Base 0
 _ZNK10__cxxabiv117__class_type_info20__do_find_public_srcElPKvPKS0_S2_@Base 0
 _ZNK10__cxxabiv120__si_class_type_info11__do_upcastEPKNS_17__class_type_infoEPKvRNS1_15__upcast_resultE@Base 0
 _ZNK10__cxxabiv120__si_class_type_info12__do_dyncastElNS_17__class_type_info10__sub_kindEPKS1_PKvS4_S6_RNS1_16__dyncast_resultE@Base 0
 _ZNK10__cxxabiv120__si_class_type_info20__do_find_public_srcElPKvPKNS_17__class_type_infoES2_@Base 0
 _ZNK4GuideqERKS_@Base 4.2.0
 _ZNK4GuidneERKS_@Base 4.2.0
 _ZNK7TskAuto12getImageSizeEv@Base 4.2.0
 _ZNK7TskAuto12isCurVsValidEv@Base 4.2.0
 _ZNK7TskAuto16getCurVsPartFlagEv@Base 4.2.0
 _ZNK7TskAuto17getCurVsPartDescrB5cxx11Ev@Base 4.2.0
 _ZNK7TskAuto17getStopProcessingEv@Base 4.2.0
 _ZNK9__gnu_cxx24__concurrence_lock_error4whatEv@Base 0
 _ZNK9__gnu_cxx26__concurrence_unlock_error4whatEv@Base 0
 _ZNKSt13bad_exception4whatEv@Base 0
 _ZNKSt5ctypeIcE8do_widenEc@Base 0
 _ZNKSt9bad_alloc4whatEv@Base 0
 _ZNKSt9exception4whatEv@Base 0
 _ZNKSt9type_info10__do_catchEPKS_PPvj@Base 0
 _ZNKSt9type_info11__do_upcastEPKN10__cxxabiv117__class_type_infoEPPv@Base 0
 _ZNKSt9type_info14__is_pointer_pEv@Base 0
 _ZNKSt9type_info15__is_function_pEv@Base 0
 _ZNSt13bad_exceptionD0Ev@Base 0
 _ZNSt13bad_exceptionD1Ev@Base 0
 _ZNSt13bad_exceptionD2Ev@Base 0
 _ZNSt6vectorI14NTFS_META_ADDRSaIS0_EE17_M_realloc_insertIJRKS0_EEEvN9__gnu_cxx17__normal_iteratorIPS0_S2_EEDpOT_@Base 0
 _ZNSt6vectorI15_TSK_DB_FS_INFOSaIS0_EE17_M_realloc_insertIJRKS0_EEEvN9__gnu_cxx17__normal_iteratorIPS0_S2_EEDpOT_@Base 0
 _ZNSt6vectorI15_TSK_DB_VS_INFOSaIS0_EE17_M_realloc_insertIJRKS0_EEEvN9__gnu_cxx17__normal_iteratorIPS0_S2_EEDpOT_@Base 0
 _ZNSt6vectorI20_TSK_DB_VS_PART_INFOSaIS0_EE17_M_realloc_insertIJRKS0_EEEvN9__gnu_cxx17__normal_iteratorIPS0_S2_EEDpOT_@Base 0
 _ZNSt6vectorI25_TSK_DB_FILE_LAYOUT_RANGESaIS0_EE12emplace_backIJS0_EEEvDpOT_@Base 0
 _ZNSt6vectorI25_TSK_DB_FILE_LAYOUT_RANGESaIS0_EE17_M_realloc_insertIJRKS0_EEEvN9__gnu_cxx17__normal_iteratorIPS0_S2_EEDpOT_@Base 0
 _ZNSt6vectorI25_TSK_DB_FILE_LAYOUT_RANGESaIS0_EE17_M_realloc_insertIJS0_EEEvN9__gnu_cxx17__normal_iteratorIPS0_S2_EEDpOT_@Base 0
 _ZNSt6vectorIN7TskAuto12error_recordESaIS1_EE17_M_realloc_insertIJRKS1_EEEvN9__gnu_cxx17__normal_iteratorIPS1_S3_EEDpOT_@Base 0
 _ZNSt6vectorINSt7__cxx1112basic_stringIcSt11char_traitsIcESaIcEEESaIS5_EE17_M_realloc_insertIJS5_EEEvN9__gnu_cxx17__normal_iteratorIPS5_S7_EEDpOT_@Base 0
 _ZNSt6vectorIhSaIhEE13_M_assign_auxIPKhEEvT_S5_St20forward_iterator_tag@Base 0
 _ZNSt6vectorIhSaIhEEaSERKS1_@Base 0
 _ZNSt7__cxx1112basic_stringIcSt11char_traitsIcESaIcEE12_M_constructIPcEEvT_S7_St20forward_iterator_tag@Base 0
 _ZNSt7__cxx1115basic_stringbufIcSt11char_traitsIcESaIcEED0Ev@Base 0
 _ZNSt7__cxx1115basic_stringbufIcSt11char_traitsIcESaIcEED1Ev@Base 0
 _ZNSt7__cxx1115basic_stringbufIcSt11char_traitsIcESaIcEED2Ev@Base 0
 _ZNSt8_Rb_treeINSt7__cxx1112basic_stringIcSt11char_traitsIcESaIcEEES5_St9_IdentityIS5_ESt4lessIS5_ESaIS5_EE16_M_insert_uniqueIS5_EESt4pairISt17_Rb_tree_iteratorIS5_EbEOT_@Base 0
 _ZNSt8_Rb_treeINSt7__cxx1112basic_stringIcSt11char_traitsIcESaIcEEES5_St9_IdentityIS5_ESt4lessIS5_ESaIS5_EE8_M_eraseEPSt13_Rb_tree_nodeIS5_E@Base 0
 _ZNSt8_Rb_treeINSt7__cxx1112basic_stringIcSt11char_traitsIcESaIcEEESt4pairIKS5_S5_ESt10_Select1stIS8_ESt4lessIS5_ESaIS8_EE14_M_insert_nodeEPSt18_Rb_tree_node_baseSG_PSt13_Rb_tree_nodeIS8_E@Base 0
 _ZNSt8_Rb_treeINSt7__cxx1112basic_stringIcSt11char_traitsIcESaIcEEESt4pairIKS5_S5_ESt10_Select1stIS8_ESt4lessIS5_ESaIS8_EE22_M_emplace_hint_uniqueIJRKSt21piecewise_construct_tSt5tupleIJRS7_EESJ_IJEEEEESt17_Rb_tree_iteratorIS8_ESt23_Rb_tree_const_iteratorIS8_EDpOT_@Base 0
 _ZNSt8_Rb_treeINSt7__cxx1112basic_stringIcSt11char_traitsIcESaIcEEESt4pairIKS5_S5_ESt10_Select1stIS8_ESt4lessIS5_ESaIS8_EE24_M_get_insert_unique_posERS7_@Base 0
 _ZNSt8_Rb_treeINSt7__cxx1112basic_stringIcSt11char_traitsIcESaIcEEESt4pairIKS5_S5_ESt10_Select1stIS8_ESt4lessIS5_ESaIS8_EE29_M_get_insert_hint_unique_posESt23_Rb_tree_const_iteratorIS8_ERS7_@Base 0
 _ZNSt8_Rb_treeINSt7__cxx1112basic_stringIcSt11char_traitsIcESaIcEEESt4pairIKS5_S5_ESt10_Select1stIS8_ESt4lessIS5_ESaIS8_EE4findERS7_@Base 0
 _ZNSt8_Rb_treeINSt7__cxx1112basic_stringIcSt11char_traitsIcESaIcEEESt4pairIKS5_S5_ESt10_Select1stIS8_ESt4lessIS5_ESaIS8_EE8_M_eraseEPSt13_Rb_tree_nodeIS8_E@Base 0
 _ZNSt8_Rb_treeIjSt4pairIKj21_YaffsCacheChunkGroupESt10_Select1stIS3_ESt4lessIjESaIS3_EE14_M_insert_nodeEPSt18_Rb_tree_node_baseSB_PSt13_Rb_tree_nodeIS3_E@Base 0
 _ZNSt8_Rb_treeIjSt4pairIKj21_YaffsCacheChunkGroupESt10_Select1stIS3_ESt4lessIjESaIS3_EE22_M_emplace_hint_uniqueIJRKSt21piecewise_construct_tSt5tupleIJRS1_EESE_IJEEEEESt17_Rb_tree_iteratorIS3_ESt23_Rb_tree_const_iteratorIS3_EDpOT_@Base 0
 _ZNSt8_Rb_treeIjSt4pairIKj21_YaffsCacheChunkGroupESt10_Select1stIS3_ESt4lessIjESaIS3_EE24_M_get_insert_unique_posERS1_@Base 0
 _ZNSt8_Rb_treeIjSt4pairIKj21_YaffsCacheChunkGroupESt10_Select1stIS3_ESt4lessIjESaIS3_EE29_M_get_insert_hint_unique_posESt23_Rb_tree_const_iteratorIS3_ERS1_@Base 0
 _ZNSt8_Rb_treeIjSt4pairIKj21_YaffsCacheChunkGroupESt10_Select1stIS3_ESt4lessIjESaIS3_EE8_M_eraseEPSt13_Rb_tree_nodeIS3_E@Base 0
 _ZNSt8_Rb_treeIjSt4pairIKjSt3mapIjlSt4lessIjESaIS0_IS1_lEEEESt10_Select1stIS8_ES4_SaIS8_EE22_M_emplace_hint_uniqueIJRKSt21piecewise_construct_tSt5tupleIJRS1_EESH_IJEEEEESt17_Rb_tree_iteratorIS8_ESt23_Rb_tree_const_iteratorIS8_EDpOT_@Base 0
 _ZNSt8_Rb_treeIjSt4pairIKjSt3mapIjlSt4lessIjESaIS0_IS1_lEEEESt10_Select1stIS8_ES4_SaIS8_EE24_M_get_insert_unique_posERS1_@Base 0
 _ZNSt8_Rb_treeIjSt4pairIKjSt3mapIjlSt4lessIjESaIS0_IS1_lEEEESt10_Select1stIS8_ES4_SaIS8_EE29_M_get_insert_hint_unique_posESt23_Rb_tree_const_iteratorIS8_ERS1_@Base 0
 _ZNSt8_Rb_treeIjSt4pairIKjSt3mapIjlSt4lessIjESaIS0_IS1_lEEEESt10_Select1stIS8_ES4_SaIS8_EE8_M_eraseEPSt13_Rb_tree_nodeIS8_E@Base 0
 _ZNSt8_Rb_treeIjSt4pairIKjSt6vectorI14NTFS_META_ADDRSaIS3_EEESt10_Select1stIS6_ESt4lessIjESaIS6_EE22_M_emplace_hint_uniqueIJRKSt21piecewise_construct_tSt5tupleIJRS1_EESH_IJEEEEESt17_Rb_tree_iteratorIS6_ESt23_Rb_tree_const_iteratorIS6_EDpOT_@Base 0
 _ZNSt8_Rb_treeIjSt4pairIKjSt6vectorI14NTFS_META_ADDRSaIS3_EEESt10_Select1stIS6_ESt4lessIjESaIS6_EE24_M_get_insert_unique_posERS1_@Base 0
 _ZNSt8_Rb_treeIjSt4pairIKjSt6vectorI14NTFS_META_ADDRSaIS3_EEESt10_Select1stIS6_ESt4lessIjESaIS6_EE29_M_get_insert_hint_unique_posESt23_Rb_tree_const_iteratorIS6_ERS1_@Base 0
 _ZNSt8_Rb_treeIjSt4pairIKjSt6vectorI14NTFS_META_ADDRSaIS3_EEESt10_Select1stIS6_ESt4lessIjESaIS6_EE8_M_eraseEPSt13_Rb_tree_nodeIS6_E@Base 0
 _ZNSt8_Rb_treeIjSt4pairIKjlESt10_Select1stIS2_ESt4lessIjESaIS2_EE24_M_get_insert_unique_posERS1_@Base 0
 _ZNSt8_Rb_treeIjSt4pairIKjlESt10_Select1stIS2_ESt4lessIjESaIS2_EE29_M_get_insert_hint_unique_posESt23_Rb_tree_const_iteratorIS2_ERS1_@Base 0
 _ZNSt8_Rb_treeIjSt4pairIKjlESt10_Select1stIS2_ESt4lessIjESaIS2_EE8_M_eraseEPSt13_Rb_tree_nodeIS2_E@Base 0
 _ZNSt8_Rb_treeIlSt4pairIKlSt3mapImS2_IjS2_IjlSt4lessIjESaIS0_IKjlEEES4_SaIS0_IS5_S8_EEES3_ImESaIS0_IKmSB_EEEESt10_Select1stISH_ES3_IlESaISH_EE22_M_emplace_hint_uniqueIJRKSt21piecewise_construct_tSt5tupleIJRS1_EESR_IJEEEEESt17_Rb_tree_iteratorISH_ESt23_Rb_tree_const_iteratorISH_EDpOT_@Base 0
 _ZNSt8_Rb_treeIlSt4pairIKlSt3mapImS2_IjS2_IjlSt4lessIjESaIS0_IKjlEEES4_SaIS0_IS5_S8_EEES3_ImESaIS0_IKmSB_EEEESt10_Select1stISH_ES3_IlESaISH_EE24_M_get_insert_unique_posERS1_@Base 0
 _ZNSt8_Rb_treeIlSt4pairIKlSt3mapImS2_IjS2_IjlSt4lessIjESaIS0_IKjlEEES4_SaIS0_IS5_S8_EEES3_ImESaIS0_IKmSB_EEEESt10_Select1stISH_ES3_IlESaISH_EE29_M_get_insert_hint_unique_posESt23_Rb_tree_const_iteratorISH_ERS1_@Base 0
 _ZNSt8_Rb_treeIlSt4pairIKlSt3mapImS2_IjS2_IjlSt4lessIjESaIS0_IKjlEEES4_SaIS0_IS5_S8_EEES3_ImESaIS0_IKmSB_EEEESt10_Select1stISH_ES3_IlESaISH_EE8_M_eraseEPSt13_Rb_tree_nodeISH_E@Base 0
 _ZNSt8_Rb_treeImSt4pairIKm12NTFS_PAR_MAPESt10_Select1stIS3_ESt4lessImESaIS3_EE22_M_emplace_hint_uniqueIJRKSt21piecewise_construct_tSt5tupleIJRS1_EESE_IJEEEEESt17_Rb_tree_iteratorIS3_ESt23_Rb_tree_const_iteratorIS3_EDpOT_@Base 0
 _ZNSt8_Rb_treeImSt4pairIKm12NTFS_PAR_MAPESt10_Select1stIS3_ESt4lessImESaIS3_EE24_M_get_insert_unique_posERS1_@Base 0
 _ZNSt8_Rb_treeImSt4pairIKm12NTFS_PAR_MAPESt10_Select1stIS3_ESt4lessImESaIS3_EE29_M_get_insert_hint_unique_posESt23_Rb_tree_const_iteratorIS3_ERS1_@Base 0
 _ZNSt8_Rb_treeImSt4pairIKm12NTFS_PAR_MAPESt10_Select1stIS3_ESt4lessImESaIS3_EE8_M_eraseEPSt13_Rb_tree_nodeIS3_E@Base 0
 _ZNSt8_Rb_treeImSt4pairIKmSt3mapIjS2_IjlSt4lessIjESaIS0_IKjlEEES4_SaIS0_IS5_S8_EEEESt10_Select1stISC_ES3_ImESaISC_EE22_M_emplace_hint_uniqueIJRKSt21piecewise_construct_tSt5tupleIJRS1_EESM_IJEEEEESt17_Rb_tree_iteratorISC_ESt23_Rb_tree_const_iteratorISC_EDpOT_@Base 0
 _ZNSt8_Rb_treeImSt4pairIKmSt3mapIjS2_IjlSt4lessIjESaIS0_IKjlEEES4_SaIS0_IS5_S8_EEEESt10_Select1stISC_ES3_ImESaISC_EE24_M_get_insert_unique_posERS1_@Base 0
 _ZNSt8_Rb_treeImSt4pairIKmSt3mapIjS2_IjlSt4lessIjESaIS0_IKjlEEES4_SaIS0_IS5_S8_EEEESt10_Select1stISC_ES3_ImESaISC_EE29_M_get_insert_hint_unique_posESt23_Rb_tree_const_iteratorISC_ERS1_@Base 0
 _ZNSt8_Rb_treeImSt4pairIKmSt3mapIjS2_IjlSt4lessIjESaIS0_IKjlEEES4_SaIS0_IS5_S8_EEEESt10_Select1stISC_ES3_ImESaISC_EE8_M_eraseEPSt13_Rb_tree_nodeISC_E@Base 0
 _ZNSt8_Rb_treeImSt4pairIKmmESt10_Select1stIS2_ESt4lessImESaIS2_EE22_M_emplace_hint_uniqueIJRKSt21piecewise_construct_tSt5tupleIJRS1_EESD_IJEEEEESt17_Rb_tree_iteratorIS2_ESt23_Rb_tree_const_iteratorIS2_EDpOT_@Base 0
 _ZNSt8_Rb_treeImSt4pairIKmmESt10_Select1stIS2_ESt4lessImESaIS2_EE24_M_get_insert_unique_posERS1_@Base 0
 _ZNSt8_Rb_treeImSt4pairIKmmESt10_Select1stIS2_ESt4lessImESaIS2_EE29_M_get_insert_hint_unique_posESt23_Rb_tree_const_iteratorIS2_ERS1_@Base 0
 _ZNSt8_Rb_treeImSt4pairIKmmESt10_Select1stIS2_ESt4lessImESaIS2_EE8_M_eraseEPSt13_Rb_tree_nodeIS2_E@Base 0
 _ZNSt9bad_allocD0Ev@Base 0
 _ZNSt9bad_allocD1Ev@Base 0
 _ZNSt9bad_allocD2Ev@Base 0
 _ZNSt9exceptionD0Ev@Base 0
 _ZNSt9exceptionD1Ev@Base 0
 _ZNSt9exceptionD2Ev@Base 0
 _ZNSt9type_infoD0Ev@Base 0
 _ZNSt9type_infoD1Ev@Base 0
 _ZNSt9type_infoD2Ev@Base 0
 _ZSt10unexpectedv@Base 0
 _ZSt13__adjust_heapIN9__gnu_cxx17__normal_iteratorIP25_TSK_DB_FILE_LAYOUT_RANGESt6vectorIS2_SaIS2_EEEElS2_NS0_5__ops15_Iter_less_iterEEvT_T0_SB_T1_T2_@Base 0
 _ZSt13get_terminatev@Base 0
 _ZSt13set_terminatePFvvE@Base 0
 _ZSt14get_unexpectedv@Base 0
 _ZSt14set_unexpectedPFvvE@Base 0
 _ZSt15get_new_handlerv@Base 0
 _ZSt15set_new_handlerPFvvE@Base 0
 _ZSt16__insertion_sortIN9__gnu_cxx17__normal_iteratorIP25_TSK_DB_FILE_LAYOUT_RANGESt6vectorIS2_SaIS2_EEEENS0_5__ops15_Iter_less_iterEEvT_SA_T0_@Base 0
 _ZSt18uncaught_exceptionv@Base 0
 _ZSt19uncaught_exceptionsv@Base 0
 _ZSt22__move_median_to_firstIN9__gnu_cxx17__normal_iteratorIP25_TSK_DB_FILE_LAYOUT_RANGESt6vectorIS2_SaIS2_EEEENS0_5__ops15_Iter_less_iterEEvT_SA_SA_SA_T0_@Base 0
 _ZSt25__unguarded_linear_insertIN9__gnu_cxx17__normal_iteratorIP25_TSK_DB_FILE_LAYOUT_RANGESt6vectorIS2_SaIS2_EEEENS0_5__ops14_Val_less_iterEEvT_T0_@Base 0
 _ZSt7nothrow@Base 0
 _ZSt9terminatev@Base 0
 _ZTI11TskDbSqlite@Base 4.3.0
 _ZTI19TskIsImageSupported@Base 4.5.0
 _ZTI5TskDb@Base 4.3.0
 _ZTI7TskAuto@Base 4.2.0
 _ZTI9TskAutoDb@Base 4.2.0
 _ZTIN10__cxxabiv115__forced_unwindE@Base 4.2.0
 _ZTIN10__cxxabiv117__class_type_infoE@Base 4.2.0
 _ZTIN10__cxxabiv119__foreign_exceptionE@Base 4.2.0
 _ZTIN10__cxxabiv120__si_class_type_infoE@Base 4.2.0
 _ZTIN9__gnu_cxx24__concurrence_lock_errorE@Base 4.2.0
 _ZTIN9__gnu_cxx26__concurrence_unlock_errorE@Base 4.2.0
 _ZTISt13bad_exception@Base 4.2.0
 _ZTISt9bad_alloc@Base 4.2.0
 _ZTISt9exception@Base 4.2.0
 _ZTISt9type_info@Base 4.2.0
 _ZTS11TskDbSqlite@Base 4.3.0
 _ZTS19TskIsImageSupported@Base 4.5.0
 _ZTS5TskDb@Base 4.3.0
 _ZTS7TskAuto@Base 4.2.0
 _ZTS9TskAutoDb@Base 4.2.0
 _ZTSN10__cxxabiv115__forced_unwindE@Base 4.2.0
 _ZTSN10__cxxabiv117__class_type_infoE@Base 4.2.0
 _ZTSN10__cxxabiv119__foreign_exceptionE@Base 4.2.0
 _ZTSN10__cxxabiv120__si_class_type_infoE@Base 4.2.0
 _ZTSN9__gnu_cxx24__concurrence_lock_errorE@Base 4.2.0
 _ZTSN9__gnu_cxx26__concurrence_unlock_errorE@Base 4.2.0
 _ZTSSt13bad_exception@Base 4.2.0
 _ZTSSt9bad_alloc@Base 4.2.0
 _ZTSSt9exception@Base 4.2.0
 _ZTSSt9type_info@Base 4.2.0
 _ZTV11TskDbSqlite@Base 4.3.0
 _ZTV19TskIsImageSupported@Base 4.5.0
 _ZTV5TskDb@Base 4.3.0
 _ZTV7TskAuto@Base 4.2.0
 _ZTV9TskAutoDb@Base 4.2.0
 _ZTVN10__cxxabiv115__forced_unwindE@Base 0
 _ZTVN10__cxxabiv117__class_type_infoE@Base 0
 _ZTVN10__cxxabiv119__foreign_exceptionE@Base 0
 _ZTVN10__cxxabiv120__si_class_type_infoE@Base 0
 _ZTVN9__gnu_cxx24__concurrence_lock_errorE@Base 0
 _ZTVN9__gnu_cxx26__concurrence_unlock_errorE@Base 0
 _ZTVSt13bad_exception@Base 0
 _ZTVSt9bad_alloc@Base 0
 _ZTVSt9exception@Base 0
 _ZTVSt9type_info@Base 0
 _ZdlPv@Base 0
 _ZdlPvm@Base 0
 _ZlsRSoRK14_TSK_DB_OBJECT@Base 4.2.0
 _ZlsRSoRK15_TSK_DB_FS_INFO@Base 4.2.0
 _ZlsRSoRK15_TSK_DB_VS_INFO@Base 4.2.0
 _ZlsRSoRK20_TSK_DB_VS_PART_INFO@Base 4.2.0
 _ZlsRSoRK25_TSK_DB_FILE_LAYOUT_RANGE@Base 4.2.0
 _ZlsRSoRK4Guid@Base 0
 _Znwm@Base 0
 __cxa_allocate_dependent_exception@Base 0
 __cxa_allocate_exception@Base 0
 __cxa_begin_catch@Base 0
 __cxa_call_terminate@Base 0
 __cxa_call_unexpected@Base 0
 __cxa_current_exception_type@Base 0
 __cxa_deleted_virtual@Base 0
 __cxa_demangle@Base 0
 __cxa_end_catch@Base 0
 __cxa_free_dependent_exception@Base 0
 __cxa_free_exception@Base 0
 __cxa_get_exception_ptr@Base 0
 __cxa_get_globals@Base 0
 __cxa_get_globals_fast@Base 0
 __cxa_init_primary_exception@Base 0
 __cxa_pure_virtual@Base 0
 __cxa_rethrow@Base 0
 __cxa_throw@Base 0
 __gcclibcxx_demangle_callback@Base 0
 __gxx_personality_v0@Base 0
 aff_open@Base 4.2.0
 cm_blk@Base 4.2.0
 cm_crc@Base 4.2.0
 cm_ini@Base 4.2.0
 cm_nxt@Base 4.2.0
 crc16@Base 4.2.0
 encase_get_entry@Base 0
 encase_make_index@Base 0
 encase_open@Base 0
 encase_test@Base 0
 error_detected@Base 4.2.0
 error_returned@Base 4.2.0
 ewf_open@Base 4.2.0
 exfatfs_dent_parse_buf@Base 4.2.0
 exfatfs_dinode_copy@Base 4.2.0
 exfatfs_find_file_stream_dentry@Base 4.2.0
 exfatfs_fsstat@Base 4.2.0
 exfatfs_get_alloc_status_from_type@Base 4.2.0
 exfatfs_get_enum_from_type@Base 4.2.0
 exfatfs_inode_lookup@Base 4.2.0
 exfatfs_inode_walk_should_skip_dentry@Base 4.2.0
 exfatfs_is_access_ctrl_table_dentry@Base 4.2.0
 exfatfs_is_alloc_bitmap_dentry@Base 4.2.0
 exfatfs_is_cluster_alloc@Base 4.2.0
 exfatfs_is_dentry@Base 4.2.0
 exfatfs_is_file_dentry@Base 4.2.0
 exfatfs_is_file_dentry_standalone@Base 4.2.0
 exfatfs_is_file_name_dentry@Base 4.2.0
 exfatfs_is_file_stream_dentry@Base 4.2.0
 exfatfs_is_file_stream_dentry_standalone@Base 4.2.0
 exfatfs_is_texfat_dentry@Base 4.2.0
 exfatfs_is_upcase_table_dentry@Base 4.2.0
 exfatfs_is_vol_guid_dentry@Base 4.2.0
 exfatfs_is_vol_label_dentry@Base 4.2.0
 exfatfs_istat_attr_flags@Base 4.2.0
 exfatfs_open@Base 0
 ext2fs_block_getflags@Base 4.2.0
 ext2fs_block_walk@Base 4.2.0
 ext2fs_dir_open_meta@Base 4.2.0
 ext2fs_inode_walk@Base 4.2.0
 ext2fs_jblk_walk@Base 4.2.0
 ext2fs_jentry_walk@Base 4.2.0
 ext2fs_jopen@Base 4.2.0
 ext2fs_open@Base 0
 fatfs_block_getflags@Base 4.2.0
 fatfs_block_walk@Base 4.2.0
 fatfs_cleanup_ascii@Base 4.2.0
 fatfs_close@Base 4.2.0
 fatfs_dentry_load@Base 4.2.0
 fatfs_dir_buf_add@Base 4.2.0
 fatfs_dir_buf_free@Base 4.2.0
 fatfs_dir_buf_get@Base 4.2.0
 fatfs_dir_open_meta@Base 4.2.0
 fatfs_dos_2_nanosec@Base 4.2.0
 fatfs_dos_2_unix_time@Base 4.2.0
 fatfs_find_parent_act@Base 4.2.0
 fatfs_fscheck@Base 4.2.0
 fatfs_getFAT@Base 4.2.0
 fatfs_get_default_attr_type@Base 4.2.0
 fatfs_inode_lookup@Base 4.2.0
 fatfs_inode_walk@Base 4.2.0
 fatfs_inum_arg_is_in_range@Base 4.2.0
 fatfs_inum_is_in_range@Base 4.2.0
 fatfs_is_sectalloc@Base 4.2.0
 fatfs_istat@Base 4.2.0
 fatfs_jblk_walk@Base 4.2.0
 fatfs_jentry_walk@Base 4.2.0
 fatfs_jopen@Base 4.2.0
 fatfs_make_data_runs@Base 4.2.0
 fatfs_name_cmp@Base 4.2.0
 fatfs_open@Base 4.2.0
 fatfs_ptr_arg_is_null@Base 4.2.0
 fatfs_utf16_inode_str_2_utf8@Base 4.2.0
 fatxxfs_dent_parse_buf@Base 4.2.0
 fatxxfs_dinode_copy@Base 4.2.0
 fatxxfs_inode_lookup@Base 4.2.0
 fatxxfs_inode_walk_should_skip_dentry@Base 4.2.0
 fatxxfs_is_cluster_alloc@Base 4.2.0
 fatxxfs_is_dentry@Base 4.2.0
 fatxxfs_istat_attr_flags@Base 4.2.0
 fatxxfs_open@Base 4.2.0
 ffs_block_getflags@Base 4.2.0
 ffs_block_walk@Base 4.2.0
 ffs_dir_open_meta@Base 4.2.0
 ffs_inode_walk@Base 4.2.0
 ffs_jblk_walk@Base 4.2.0
 ffs_jentry_walk@Base 4.2.0
 ffs_jopen@Base 4.2.0
 ffs_open@Base 0
 free_res_descriptor@Base 4.2.0
 gLowerCaseTable@Base 4.2.0
 hdb_base_accepts_updates@Base 0
 hdb_base_add_entry@Base 0
 hdb_base_begin_transaction@Base 0
 hdb_base_commit_transaction@Base 0
 hdb_base_db_name_from_path@Base 0
 hdb_base_get_db_path@Base 0
 hdb_base_get_display_name@Base 0
 hdb_base_get_index_path@Base 0
 hdb_base_has_index@Base 0
 hdb_base_lookup_bin@Base 0
 hdb_base_lookup_str@Base 0
 hdb_base_lookup_verbose_str@Base 0
 hdb_base_make_index@Base 0
 hdb_base_open_index@Base 0
 hdb_base_rollback_transaction@Base 0
 hdb_base_uses_external_indexes@Base 0
 hdb_binsrch_accepts_updates@Base 0
 hdb_binsrch_close@Base 0
 hdb_binsrch_get_index_path@Base 0
 hdb_binsrch_has_index@Base 0
 hdb_binsrch_idx_add_entry_bin@Base 0
 hdb_binsrch_idx_add_entry_str@Base 0
 hdb_binsrch_idx_finalize@Base 0
 hdb_binsrch_idx_initialize@Base 0
 hdb_binsrch_lookup_bin@Base 0
 hdb_binsrch_lookup_str@Base 0
 hdb_binsrch_lookup_verbose_str@Base 0
 hdb_binsrch_open@Base 0
 hdb_binsrch_open_idx@Base 0
 hdb_binsrch_uses_external_indexes@Base 0
 hdb_info_base_close@Base 0
 hdb_info_base_open@Base 0
 hfs_UTF16toUTF8@Base 4.2.0
 hfs_block_getflags@Base 4.2.0
 hfs_cat_compare_keys@Base 4.2.0
 hfs_cat_file_lookup@Base 4.2.0
 hfs_cat_read_file_folder_record@Base 4.2.0
 hfs_cat_read_thread_record@Base 4.2.0
 hfs_cat_traverse@Base 4.2.0
 hfs_checked_read_random@Base 4.2.0
 hfs_convert_2_unix_time@Base 4.2.0
 hfs_dir_open_meta@Base 4.2.0
 hfs_follow_hard_link@Base 4.2.0
 hfs_get_idxkeylen@Base 4.2.0
 hfs_get_inode_name@Base 4.2.0
 hfs_inode_walk@Base 4.2.0
 hfs_jblk_walk@Base 4.2.0
 hfs_jentry_walk@Base 4.2.0
 hfs_jopen@Base 4.2.0
 hfs_name_cmp@Base 4.2.0
 hfs_open@Base 0
 hfs_unicode_compare@Base 4.2.0
 hk_getentry@Base 0
 hk_makeindex@Base 0
 hk_open@Base 0
 hk_test@Base 0
 idxonly_get_db_path@Base 0
 idxonly_getentry@Base 0
 idxonly_open@Base 0
 iso9660_dinode_load@Base 4.2.0
 iso9660_dir_open_meta@Base 4.2.0
 iso9660_name_cmp@Base 4.2.0
 iso9660_open@Base 0
 lzvn_decode@Base 4.5.0
 lzvn_decode_buffer@Base 4.5.0
 md5sum_getentry@Base 0
 md5sum_makeindex@Base 0
 md5sum_open@Base 0
 md5sum_test@Base 0
 nsrl_getentry@Base 0
 nsrl_makeindex@Base 0
 nsrl_open@Base 0
 nsrl_test@Base 0
 nt2nano@Base 4.4.2
 nt2unixtime@Base 4.2.0
 ntfs_attrname_lookup@Base 4.2.0
 ntfs_dinode_lookup@Base 4.2.0
 ntfs_dir_open_meta@Base 4.2.0
 ntfs_find_file@Base 4.2.0
 ntfs_name_cmp@Base 4.2.0
 ntfs_open@Base 0
 ntfs_orphan_map_free@Base 4.2.0
 progname@Base 4.2.0
 raw_open@Base 4.2.0
 rawfs_open@Base 0
 sqlite_hdb_add_entry@Base 0
 sqlite_hdb_begin_transaction@Base 0
 sqlite_hdb_close@Base 0
 sqlite_hdb_commit_transaction@Base 0
 sqlite_hdb_create_db@Base 0
 sqlite_hdb_is_sqlite_file@Base 0
 sqlite_hdb_lookup_bin@Base 0
 sqlite_hdb_lookup_str@Base 0
 sqlite_hdb_lookup_verbose_bin@Base 0
 sqlite_hdb_lookup_verbose_str@Base 0
 sqlite_hdb_open@Base 0
 sqlite_hdb_rollback_transaction@Base 0
 swapfs_open@Base 0
 tsk_UTF16WtoUTF8_lclorder@Base 0
 tsk_UTF16toUTF8@Base 0
 tsk_UTF16toUTF8_lclorder@Base 0
 tsk_UTF8toUTF16@Base 0
 tsk_cleanupUTF8@Base 0
 tsk_deinit_lock@Base 0
 tsk_error_errstr2_concat@Base 4.2.0
 tsk_error_get@Base 4.2.0
 tsk_error_get_errno@Base 4.2.0
 tsk_error_get_errstr2@Base 4.2.0
 tsk_error_get_errstr@Base 4.2.0
 tsk_error_get_info@Base 4.2.0
 tsk_error_print@Base 4.2.0
 tsk_error_reset@Base 4.2.0
 tsk_error_set_errno@Base 4.2.0
 tsk_error_set_errstr2@Base 4.2.0
 tsk_error_set_errstr@Base 4.2.0
 tsk_error_vset_errstr2@Base 4.2.0
 tsk_error_vset_errstr@Base 4.2.0
 tsk_fprintf@Base 4.2.0
 tsk_fs_attr_add_run@Base 0
 tsk_fs_attr_alloc@Base 0
 tsk_fs_attr_append_run@Base 0
 tsk_fs_attr_clear@Base 0
 tsk_fs_attr_free@Base 0
 tsk_fs_attr_print@Base 4.5.0
 tsk_fs_attr_read@Base 4.2.0
 tsk_fs_attr_run_alloc@Base 0
 tsk_fs_attr_run_free@Base 0
 tsk_fs_attr_set_run@Base 0
 tsk_fs_attr_set_str@Base 0
 tsk_fs_attr_walk@Base 4.2.0
 tsk_fs_attrlist_add@Base 0
 tsk_fs_attrlist_alloc@Base 0
 tsk_fs_attrlist_free@Base 0
 tsk_fs_attrlist_get@Base 0
 tsk_fs_attrlist_get_id@Base 0
 tsk_fs_attrlist_get_idx@Base 0
 tsk_fs_attrlist_get_len@Base 0
 tsk_fs_attrlist_get_name_type@Base 0
 tsk_fs_attrlist_getnew@Base 0
 tsk_fs_attrlist_markunused@Base 0
 tsk_fs_blkcalc@Base 4.2.0
 tsk_fs_blkcat@Base 4.2.0
 tsk_fs_blkls@Base 4.2.0
 tsk_fs_blkstat@Base 4.2.0
 tsk_fs_block_alloc@Base 0
 tsk_fs_block_free@Base 4.2.0
 tsk_fs_block_get@Base 4.2.0
 tsk_fs_block_get_flag@Base 4.2.0
 tsk_fs_block_set@Base 0
 tsk_fs_block_walk@Base 4.2.0
 tsk_fs_close@Base 4.2.0
 tsk_fs_dir_add@Base 0
 tsk_fs_dir_alloc@Base 0
 tsk_fs_dir_close@Base 4.2.0
 tsk_fs_dir_contains@Base 0
 tsk_fs_dir_find_inum_named@Base 4.2.0
 tsk_fs_dir_find_orphans@Base 0
 tsk_fs_dir_get@Base 4.2.0
 tsk_fs_dir_get_name@Base 4.2.0
 tsk_fs_dir_getsize@Base 4.2.0
 tsk_fs_dir_hash@Base 0
 tsk_fs_dir_load_inum_named@Base 4.2.0
 tsk_fs_dir_make_orphan_dir_meta@Base 0
 tsk_fs_dir_make_orphan_dir_name@Base 0
 tsk_fs_dir_open@Base 4.2.0
 tsk_fs_dir_open_meta@Base 4.2.0
 tsk_fs_dir_realloc@Base 0
 tsk_fs_dir_reset@Base 0
 tsk_fs_dir_walk@Base 4.2.0
 tsk_fs_ffind@Base 4.2.0
 tsk_fs_file_alloc@Base 0
 tsk_fs_file_attr_get@Base 4.2.0
 tsk_fs_file_attr_get_id@Base 4.2.0
 tsk_fs_file_attr_get_idx@Base 4.2.0
 tsk_fs_file_attr_get_type@Base 4.2.0
 tsk_fs_file_attr_getsize@Base 4.2.0
 tsk_fs_file_close@Base 4.2.0
 tsk_fs_file_get_owner_sid@Base 4.2.0
 tsk_fs_file_hash_calc@Base 4.2.0
 tsk_fs_file_hash_calc_callback@Base 4.2.0
 tsk_fs_file_open@Base 4.2.0
 tsk_fs_file_open_meta@Base 4.2.0
 tsk_fs_file_read@Base 4.2.0
 tsk_fs_file_read_type@Base 4.2.0
 tsk_fs_file_reset@Base 4.2.0
 tsk_fs_file_walk@Base 4.2.0
 tsk_fs_file_walk_type@Base 4.2.0
 tsk_fs_fls@Base 4.2.0
 tsk_fs_free@Base 0
 tsk_fs_icat@Base 4.2.0
 tsk_fs_ifind_data@Base 4.2.0
 tsk_fs_ifind_par@Base 4.2.0
 tsk_fs_ifind_path@Base 4.2.0
 tsk_fs_ils@Base 4.2.0
 tsk_fs_load_file_action@Base 0
 tsk_fs_malloc@Base 0
 tsk_fs_meta_alloc@Base 0
 tsk_fs_meta_close@Base 0
 tsk_fs_meta_make_ls@Base 4.2.0
 tsk_fs_meta_realloc@Base 0
 tsk_fs_meta_reset@Base 0
 tsk_fs_meta_type_str@Base 4.2.0
 tsk_fs_meta_walk@Base 4.2.0
 tsk_fs_name_alloc@Base 0
 tsk_fs_name_copy@Base 0
 tsk_fs_name_free@Base 0
 tsk_fs_name_print@Base 0
 tsk_fs_name_print_long@Base 0
 tsk_fs_name_print_mac@Base 0
 tsk_fs_name_print_mac_md5@Base 0
 tsk_fs_name_realloc@Base 0
 tsk_fs_name_reset@Base 0
 tsk_fs_name_type_str@Base 4.2.0
 tsk_fs_nofs_block_getflags@Base 0
 tsk_fs_nofs_block_walk@Base 0
 tsk_fs_nofs_close@Base 0
 tsk_fs_nofs_dir_open_meta@Base 0
 tsk_fs_nofs_file_add_meta@Base 0
 tsk_fs_nofs_fsstat@Base 0
 tsk_fs_nofs_get_default_attr_type@Base 0
 tsk_fs_nofs_inode_walk@Base 0
 tsk_fs_nofs_istat@Base 0
 tsk_fs_nofs_jblk_walk@Base 0
 tsk_fs_nofs_jentry_walk@Base 0
 tsk_fs_nofs_jopen@Base 0
 tsk_fs_nofs_make_data_run@Base 0
 tsk_fs_nofs_name_cmp@Base 0
 tsk_fs_open_img@Base 4.2.0
 tsk_fs_open_vol@Base 4.2.0
 tsk_fs_parse_inum@Base 4.2.0
 tsk_fs_path2inum@Base 4.2.0
 tsk_fs_read@Base 4.2.0
 tsk_fs_read_block@Base 4.2.0
 tsk_fs_time_to_str@Base 0
 tsk_fs_time_to_str_subsecs@Base 0
 tsk_fs_type_print@Base 4.2.0
 tsk_fs_type_supported@Base 4.2.0
 tsk_fs_type_toid@Base 4.2.0
 tsk_fs_type_toid_utf8@Base 4.2.0
 tsk_fs_type_toname@Base 4.2.0
 tsk_fs_unix_get_default_attr_type@Base 0
 tsk_fs_unix_make_data_run@Base 0
 tsk_fs_unix_name_cmp@Base 0
 tsk_fs_usnjls@Base 0
 tsk_guess_end_u16@Base 0
 tsk_guess_end_u32@Base 0
 tsk_guess_end_u64@Base 0
 tsk_hdb_accepts_updates@Base 4.2.0
 tsk_hdb_add_entry@Base 4.2.0
 tsk_hdb_begin_transaction@Base 4.2.0
 tsk_hdb_close@Base 4.2.0
 tsk_hdb_commit_transaction@Base 4.2.0
 tsk_hdb_create@Base 4.2.0
 tsk_hdb_get_db_path@Base 4.2.0
 tsk_hdb_get_display_name@Base 4.2.0
 tsk_hdb_get_idx_path@Base 4.2.0
 tsk_hdb_has_idx@Base 4.2.0
 tsk_hdb_is_idx_only@Base 4.2.0
 tsk_hdb_lookup_raw@Base 4.2.0
 tsk_hdb_lookup_str@Base 4.2.0
 tsk_hdb_lookup_verbose_str@Base 4.2.0
 tsk_hdb_make_index@Base 4.2.0
 tsk_hdb_open@Base 4.2.0
 tsk_hdb_open_idx@Base 4.2.0
 tsk_hdb_rollback_transaction@Base 4.2.0
 tsk_hdb_uses_external_indexes@Base 4.2.0
 tsk_img_close@Base 4.2.0
 tsk_img_findFiles@Base 0
 tsk_img_free@Base 0
 tsk_img_malloc@Base 0
 tsk_img_open@Base 4.2.0
 tsk_img_open_external@Base 4.3.0
 tsk_img_open_sing@Base 4.2.0
 tsk_img_open_utf8@Base 4.2.0
 tsk_img_open_utf8_sing@Base 4.2.0
 tsk_img_read@Base 4.2.0
 tsk_img_type_print@Base 4.2.0
 tsk_img_type_supported@Base 4.2.0
 tsk_img_type_todesc@Base 4.2.0
 tsk_img_type_toid@Base 4.2.0
 tsk_img_type_toid_utf8@Base 4.2.0
 tsk_img_type_toname@Base 4.2.0
 tsk_img_writer_create@Base 4.4.1
 tsk_img_writer_finish@Base 4.6.7
 tsk_init_lock@Base 0
 tsk_isLegalUTF8Sequence@Base 0
 tsk_list_add@Base 4.2.0
 tsk_list_find@Base 4.2.0
 tsk_list_free@Base 4.2.0
 tsk_malloc@Base 0
 tsk_ntfs_usnjentry_walk@Base 0
 tsk_ntfs_usnjopen@Base 0
 tsk_parse_offset@Base 4.2.0
 tsk_parse_pnum@Base 4.2.0
 tsk_print_sanitized@Base 4.3.0
 tsk_printf@Base 4.2.0
 tsk_realloc@Base 0
 tsk_release_lock@Base 0
 tsk_stack_create@Base 4.2.0
 tsk_stack_find@Base 4.2.0
 tsk_stack_free@Base 4.2.0
 tsk_stack_pop@Base 4.2.0
 tsk_stack_push@Base 4.2.0
 tsk_take_lock@Base 0
 tsk_verbose@Base 4.2.0
 tsk_version_get_str@Base 4.2.0
 tsk_version_print@Base 4.2.0
 tsk_vs_bsd_open@Base 0
 tsk_vs_close@Base 4.2.0
 tsk_vs_dos_open@Base 0
 tsk_vs_gpt_open@Base 0
 tsk_vs_mac_open@Base 0
 tsk_vs_open@Base 4.2.0
 tsk_vs_part_add@Base 0
 tsk_vs_part_free@Base 0
 tsk_vs_part_get@Base 4.2.0
 tsk_vs_part_read@Base 4.2.0
 tsk_vs_part_read_block@Base 4.2.0
 tsk_vs_part_unused@Base 0
 tsk_vs_part_walk@Base 4.2.0
 tsk_vs_read_block@Base 4.2.0
 tsk_vs_sun_open@Base 0
 tsk_vs_type_print@Base 4.2.0
 tsk_vs_type_supported@Base 4.2.0
 tsk_vs_type_todesc@Base 4.2.0
 tsk_vs_type_toid@Base 4.2.0
 tsk_vs_type_toid_utf8@Base 4.2.0
 tsk_vs_type_toname@Base 4.2.0
 vs_open_table@Base 4.2.0
 yaffs2_open@Base 0
